; ModuleID = 'source-C-CXX/60/392.cpp'
source_filename = "source-C-CXX/60/392.cpp"
target datalayout = "e-m:e-p270:32:32-p271:32:32-p272:64:64-i64:64-f80:128-n8:16:32:64-S128"
target triple = "x86_64-pc-linux-gnu"

%"class.std::ios_base::Init" = type { i8 }
%"class.std::basic_istream" = type { i32 (...)**, i64, %"class.std::basic_ios" }
%"class.std::basic_ios" = type { %"class.std::ios_base", %"class.std::basic_ostream"*, i8, i8, %"class.std::basic_streambuf"*, %"class.std::ctype"*, %"class.std::num_put"*, %"class.std::num_get"* }
%"class.std::ios_base" = type { i32 (...)**, i64, i64, i32, i32, i32, %"struct.std::ios_base::_Callback_list"*, %"struct.std::ios_base::_Words", [8 x %"struct.std::ios_base::_Words"], i32, %"struct.std::ios_base::_Words"*, %"class.std::locale" }
%"struct.std::ios_base::_Callback_list" = type { %"struct.std::ios_base::_Callback_list"*, void (i32, %"class.std::ios_base"*, i32)*, i32, i32 }
%"struct.std::ios_base::_Words" = type { i8*, i64 }
%"class.std::locale" = type { %"class.std::locale::_Impl"* }
%"class.std::locale::_Impl" = type { i32, %"class.std::locale::facet"**, i64, %"class.std::locale::facet"**, i8** }
%"class.std::locale::facet" = type <{ i32 (...)**, i32, [4 x i8] }>
%"class.std::basic_ostream" = type { i32 (...)**, %"class.std::basic_ios" }
%"class.std::basic_streambuf" = type { i32 (...)**, i8*, i8*, i8*, i8*, i8*, i8*, %"class.std::locale" }
%"class.std::ctype" = type <{ %"class.std::locale::facet.base", [4 x i8], %struct.__locale_struct*, i8, [7 x i8], i32*, i32*, i16*, i8, [256 x i8], [256 x i8], i8, [6 x i8] }>
%"class.std::locale::facet.base" = type <{ i32 (...)**, i32 }>
%struct.__locale_struct = type { [13 x %struct.__locale_data*], i16*, i32*, i32*, [13 x i8*] }
%struct.__locale_data = type opaque
%"class.std::num_put" = type { %"class.std::locale::facet.base", [4 x i8] }
%"class.std::num_get" = type { %"class.std::locale::facet.base", [4 x i8] }

@_ZStL8__ioinit = internal global %"class.std::ios_base::Init" zeroinitializer, align 1
@__dso_handle = external hidden global i8
@_ZSt3cin = external global %"class.std::basic_istream", align 8
@_ZSt4cout = external global %"class.std::basic_ostream", align 8
@llvm.global_ctors = appending global [1 x { i32, void ()*, i8* }] [{ i32, void ()*, i8* } { i32 65535, void ()* @_GLOBAL__sub_I_392.cpp, i8* null }]

declare void @_ZNSt8ios_base4InitC1Ev(%"class.std::ios_base::Init"* nonnull align 1 dereferenceable(1)) unnamed_addr #0

; Function Attrs: nounwind
declare void @_ZNSt8ios_base4InitD1Ev(%"class.std::ios_base::Init"* nonnull align 1 dereferenceable(1)) unnamed_addr #1

; Function Attrs: nofree nounwind
declare i32 @__cxa_atexit(void (i8*)*, i8*, i8*) local_unnamed_addr #2

; Function Attrs: mustprogress norecurse sspstrong uwtable
define dso_local i32 @main() local_unnamed_addr #3 {
  %1 = alloca i32, align 4
  %2 = alloca [100 x i32], align 16
  %3 = bitcast i32* %1 to i8*
  call void @llvm.lifetime.start.p0i8(i64 4, i8* nonnull %3) #7
  %4 = bitcast [100 x i32]* %2 to i8*
  call void @llvm.lifetime.start.p0i8(i64 400, i8* nonnull %4) #7
  %5 = call nonnull align 8 dereferenceable(16) %"class.std::basic_istream"* @_ZNSirsERi(%"class.std::basic_istream"* nonnull align 8 dereferenceable(16) @_ZSt3cin, i32* nonnull align 4 dereferenceable(4) %1)
  %6 = load i32, i32* %1, align 4, !tbaa !5
  %7 = icmp sgt i32 %6, 0
  br i1 %7, label %10, label %155

8:                                                ; preds = %10
  %9 = icmp sgt i32 %15, 0
  br i1 %9, label %18, label %155

10:                                               ; preds = %0, %10
  %11 = phi i64 [ %14, %10 ], [ 0, %0 ]
  %12 = getelementptr inbounds [100 x i32], [100 x i32]* %2, i64 0, i64 %11
  %13 = call nonnull align 8 dereferenceable(16) %"class.std::basic_istream"* @_ZNSirsERi(%"class.std::basic_istream"* nonnull align 8 dereferenceable(16) @_ZSt3cin, i32* nonnull align 4 dereferenceable(4) %12)
  %14 = add nuw nsw i64 %11, 1
  %15 = load i32, i32* %1, align 4, !tbaa !5
  %16 = sext i32 %15 to i64
  %17 = icmp slt i64 %14, %16
  br i1 %17, label %10, label %8, !llvm.loop !9

18:                                               ; preds = %8, %148
  %19 = phi i64 [ %151, %148 ], [ 0, %8 ]
  %20 = getelementptr inbounds [100 x i32], [100 x i32]* %2, i64 0, i64 %19
  %21 = load i32, i32* %20, align 4, !tbaa !5
  switch i32 %21, label %22 [
    i32 1, label %31
    i32 2, label %61
  ]

22:                                               ; preds = %18
  %23 = icmp sgt i32 %21, 2
  br i1 %23, label %24, label %117

24:                                               ; preds = %22
  %25 = add i32 %21, -2
  %26 = add i32 %21, -3
  %27 = and i32 %25, 7
  %28 = icmp ult i32 %26, 7
  br i1 %28, label %105, label %29

29:                                               ; preds = %24
  %30 = and i32 %25, -8
  br label %91

31:                                               ; preds = %18
  %32 = call nonnull align 8 dereferenceable(8) %"class.std::basic_ostream"* @_ZNSolsEi(%"class.std::basic_ostream"* nonnull align 8 dereferenceable(8) @_ZSt4cout, i32 1)
  %33 = bitcast %"class.std::basic_ostream"* %32 to i8**
  %34 = load i8*, i8** %33, align 8, !tbaa !11
  %35 = getelementptr i8, i8* %34, i64 -24
  %36 = bitcast i8* %35 to i64*
  %37 = load i64, i64* %36, align 8
  %38 = bitcast %"class.std::basic_ostream"* %32 to i8*
  %39 = add nsw i64 %37, 240
  %40 = getelementptr inbounds i8, i8* %38, i64 %39
  %41 = bitcast i8* %40 to %"class.std::ctype"**
  %42 = load %"class.std::ctype"*, %"class.std::ctype"** %41, align 8, !tbaa !13
  %43 = icmp eq %"class.std::ctype"* %42, null
  br i1 %43, label %44, label %45

44:                                               ; preds = %31
  call void @_ZSt16__throw_bad_castv() #8
  unreachable

45:                                               ; preds = %31
  %46 = getelementptr inbounds %"class.std::ctype", %"class.std::ctype"* %42, i64 0, i32 8
  %47 = load i8, i8* %46, align 8, !tbaa !17
  %48 = icmp eq i8 %47, 0
  br i1 %48, label %52, label %49

49:                                               ; preds = %45
  %50 = getelementptr inbounds %"class.std::ctype", %"class.std::ctype"* %42, i64 0, i32 9, i64 10
  %51 = load i8, i8* %50, align 1, !tbaa !19
  br label %58

52:                                               ; preds = %45
  call void @_ZNKSt5ctypeIcE13_M_widen_initEv(%"class.std::ctype"* nonnull align 8 dereferenceable(570) %42)
  %53 = bitcast %"class.std::ctype"* %42 to i8 (%"class.std::ctype"*, i8)***
  %54 = load i8 (%"class.std::ctype"*, i8)**, i8 (%"class.std::ctype"*, i8)*** %53, align 8, !tbaa !11
  %55 = getelementptr inbounds i8 (%"class.std::ctype"*, i8)*, i8 (%"class.std::ctype"*, i8)** %54, i64 6
  %56 = load i8 (%"class.std::ctype"*, i8)*, i8 (%"class.std::ctype"*, i8)** %55, align 8
  %57 = call signext i8 %56(%"class.std::ctype"* nonnull align 8 dereferenceable(570) %42, i8 signext 10)
  br label %58

58:                                               ; preds = %49, %52
  %59 = phi i8 [ %51, %49 ], [ %57, %52 ]
  %60 = call nonnull align 8 dereferenceable(8) %"class.std::basic_ostream"* @_ZNSo3putEc(%"class.std::basic_ostream"* nonnull align 8 dereferenceable(8) %32, i8 signext %59)
  br label %148

61:                                               ; preds = %18
  %62 = call nonnull align 8 dereferenceable(8) %"class.std::basic_ostream"* @_ZNSolsEi(%"class.std::basic_ostream"* nonnull align 8 dereferenceable(8) @_ZSt4cout, i32 1)
  %63 = bitcast %"class.std::basic_ostream"* %62 to i8**
  %64 = load i8*, i8** %63, align 8, !tbaa !11
  %65 = getelementptr i8, i8* %64, i64 -24
  %66 = bitcast i8* %65 to i64*
  %67 = load i64, i64* %66, align 8
  %68 = bitcast %"class.std::basic_ostream"* %62 to i8*
  %69 = add nsw i64 %67, 240
  %70 = getelementptr inbounds i8, i8* %68, i64 %69
  %71 = bitcast i8* %70 to %"class.std::ctype"**
  %72 = load %"class.std::ctype"*, %"class.std::ctype"** %71, align 8, !tbaa !13
  %73 = icmp eq %"class.std::ctype"* %72, null
  br i1 %73, label %74, label %75

74:                                               ; preds = %61
  call void @_ZSt16__throw_bad_castv() #8
  unreachable

75:                                               ; preds = %61
  %76 = getelementptr inbounds %"class.std::ctype", %"class.std::ctype"* %72, i64 0, i32 8
  %77 = load i8, i8* %76, align 8, !tbaa !17
  %78 = icmp eq i8 %77, 0
  br i1 %78, label %82, label %79

79:                                               ; preds = %75
  %80 = getelementptr inbounds %"class.std::ctype", %"class.std::ctype"* %72, i64 0, i32 9, i64 10
  %81 = load i8, i8* %80, align 1, !tbaa !19
  br label %88

82:                                               ; preds = %75
  call void @_ZNKSt5ctypeIcE13_M_widen_initEv(%"class.std::ctype"* nonnull align 8 dereferenceable(570) %72)
  %83 = bitcast %"class.std::ctype"* %72 to i8 (%"class.std::ctype"*, i8)***
  %84 = load i8 (%"class.std::ctype"*, i8)**, i8 (%"class.std::ctype"*, i8)*** %83, align 8, !tbaa !11
  %85 = getelementptr inbounds i8 (%"class.std::ctype"*, i8)*, i8 (%"class.std::ctype"*, i8)** %84, i64 6
  %86 = load i8 (%"class.std::ctype"*, i8)*, i8 (%"class.std::ctype"*, i8)** %85, align 8
  %87 = call signext i8 %86(%"class.std::ctype"* nonnull align 8 dereferenceable(570) %72, i8 signext 10)
  br label %88

88:                                               ; preds = %79, %82
  %89 = phi i8 [ %81, %79 ], [ %87, %82 ]
  %90 = call nonnull align 8 dereferenceable(8) %"class.std::basic_ostream"* @_ZNSo3putEc(%"class.std::basic_ostream"* nonnull align 8 dereferenceable(8) %62, i8 signext %89)
  br label %148

91:                                               ; preds = %91, %29
  %92 = phi i32 [ 1, %29 ], [ %102, %91 ]
  %93 = phi i32 [ 1, %29 ], [ %101, %91 ]
  %94 = phi i32 [ %30, %29 ], [ %103, %91 ]
  %95 = add nsw i32 %92, %93
  %96 = add nsw i32 %95, %92
  %97 = add nsw i32 %96, %95
  %98 = add nsw i32 %97, %96
  %99 = add nsw i32 %98, %97
  %100 = add nsw i32 %99, %98
  %101 = add nsw i32 %100, %99
  %102 = add nsw i32 %101, %100
  %103 = add i32 %94, -8
  %104 = icmp eq i32 %103, 0
  br i1 %104, label %105, label %91, !llvm.loop !20

105:                                              ; preds = %91, %24
  %106 = phi i32 [ undef, %24 ], [ %102, %91 ]
  %107 = phi i32 [ 1, %24 ], [ %102, %91 ]
  %108 = phi i32 [ 1, %24 ], [ %101, %91 ]
  %109 = icmp eq i32 %27, 0
  br i1 %109, label %117, label %110

110:                                              ; preds = %105, %110
  %111 = phi i32 [ %114, %110 ], [ %107, %105 ]
  %112 = phi i32 [ %111, %110 ], [ %108, %105 ]
  %113 = phi i32 [ %115, %110 ], [ %27, %105 ]
  %114 = add nsw i32 %111, %112
  %115 = add i32 %113, -1
  %116 = icmp eq i32 %115, 0
  br i1 %116, label %117, label %110, !llvm.loop !21

117:                                              ; preds = %105, %110, %22
  %118 = phi i32 [ 0, %22 ], [ %106, %105 ], [ %114, %110 ]
  %119 = call nonnull align 8 dereferenceable(8) %"class.std::basic_ostream"* @_ZNSolsEi(%"class.std::basic_ostream"* nonnull align 8 dereferenceable(8) @_ZSt4cout, i32 %118)
  %120 = bitcast %"class.std::basic_ostream"* %119 to i8**
  %121 = load i8*, i8** %120, align 8, !tbaa !11
  %122 = getelementptr i8, i8* %121, i64 -24
  %123 = bitcast i8* %122 to i64*
  %124 = load i64, i64* %123, align 8
  %125 = bitcast %"class.std::basic_ostream"* %119 to i8*
  %126 = add nsw i64 %124, 240
  %127 = getelementptr inbounds i8, i8* %125, i64 %126
  %128 = bitcast i8* %127 to %"class.std::ctype"**
  %129 = load %"class.std::ctype"*, %"class.std::ctype"** %128, align 8, !tbaa !13
  %130 = icmp eq %"class.std::ctype"* %129, null
  br i1 %130, label %131, label %132

131:                                              ; preds = %117
  call void @_ZSt16__throw_bad_castv() #8
  unreachable

132:                                              ; preds = %117
  %133 = getelementptr inbounds %"class.std::ctype", %"class.std::ctype"* %129, i64 0, i32 8
  %134 = load i8, i8* %133, align 8, !tbaa !17
  %135 = icmp eq i8 %134, 0
  br i1 %135, label %139, label %136

136:                                              ; preds = %132
  %137 = getelementptr inbounds %"class.std::ctype", %"class.std::ctype"* %129, i64 0, i32 9, i64 10
  %138 = load i8, i8* %137, align 1, !tbaa !19
  br label %145

139:                                              ; preds = %132
  call void @_ZNKSt5ctypeIcE13_M_widen_initEv(%"class.std::ctype"* nonnull align 8 dereferenceable(570) %129)
  %140 = bitcast %"class.std::ctype"* %129 to i8 (%"class.std::ctype"*, i8)***
  %141 = load i8 (%"class.std::ctype"*, i8)**, i8 (%"class.std::ctype"*, i8)*** %140, align 8, !tbaa !11
  %142 = getelementptr inbounds i8 (%"class.std::ctype"*, i8)*, i8 (%"class.std::ctype"*, i8)** %141, i64 6
  %143 = load i8 (%"class.std::ctype"*, i8)*, i8 (%"class.std::ctype"*, i8)** %142, align 8
  %144 = call signext i8 %143(%"class.std::ctype"* nonnull align 8 dereferenceable(570) %129, i8 signext 10)
  br label %145

145:                                              ; preds = %136, %139
  %146 = phi i8 [ %138, %136 ], [ %144, %139 ]
  %147 = call nonnull align 8 dereferenceable(8) %"class.std::basic_ostream"* @_ZNSo3putEc(%"class.std::basic_ostream"* nonnull align 8 dereferenceable(8) %119, i8 signext %146)
  br label %148

148:                                              ; preds = %88, %145, %58
  %149 = phi %"class.std::basic_ostream"* [ %90, %88 ], [ %147, %145 ], [ %60, %58 ]
  %150 = call nonnull align 8 dereferenceable(8) %"class.std::basic_ostream"* @_ZNSo5flushEv(%"class.std::basic_ostream"* nonnull align 8 dereferenceable(8) %149)
  %151 = add nuw nsw i64 %19, 1
  %152 = load i32, i32* %1, align 4, !tbaa !5
  %153 = sext i32 %152 to i64
  %154 = icmp slt i64 %151, %153
  br i1 %154, label %18, label %155, !llvm.loop !23

155:                                              ; preds = %148, %0, %8
  call void @llvm.lifetime.end.p0i8(i64 400, i8* nonnull %4) #7
  call void @llvm.lifetime.end.p0i8(i64 4, i8* nonnull %3) #7
  ret i32 0
}

; Function Attrs: argmemonly mustprogress nofree nosync nounwind willreturn
declare void @llvm.lifetime.start.p0i8(i64 immarg, i8* nocapture) #4

declare nonnull align 8 dereferenceable(16) %"class.std::basic_istream"* @_ZNSirsERi(%"class.std::basic_istream"* nonnull align 8 dereferenceable(16), i32* nonnull align 4 dereferenceable(4)) local_unnamed_addr #0

declare nonnull align 8 dereferenceable(8) %"class.std::basic_ostream"* @_ZNSolsEi(%"class.std::basic_ostream"* nonnull align 8 dereferenceable(8), i32) local_unnamed_addr #0

; Function Attrs: argmemonly mustprogress nofree nosync nounwind willreturn
declare void @llvm.lifetime.end.p0i8(i64 immarg, i8* nocapture) #4

declare nonnull align 8 dereferenceable(8) %"class.std::basic_ostream"* @_ZNSo3putEc(%"class.std::basic_ostream"* nonnull align 8 dereferenceable(8), i8 signext) local_unnamed_addr #0

declare nonnull align 8 dereferenceable(8) %"class.std::basic_ostream"* @_ZNSo5flushEv(%"class.std::basic_ostream"* nonnull align 8 dereferenceable(8)) local_unnamed_addr #0

; Function Attrs: noreturn
declare void @_ZSt16__throw_bad_castv() local_unnamed_addr #5

declare void @_ZNKSt5ctypeIcE13_M_widen_initEv(%"class.std::ctype"* nonnull align 8 dereferenceable(570)) local_unnamed_addr #0

; Function Attrs: sspstrong uwtable
define internal void @_GLOBAL__sub_I_392.cpp() #6 section ".text.startup" {
  tail call void @_ZNSt8ios_base4InitC1Ev(%"class.std::ios_base::Init"* nonnull align 1 dereferenceable(1) @_ZStL8__ioinit)
  %1 = tail call i32 @__cxa_atexit(void (i8*)* bitcast (void (%"class.std::ios_base::Init"*)* @_ZNSt8ios_base4InitD1Ev to void (i8*)*), i8* getelementptr inbounds (%"class.std::ios_base::Init", %"class.std::ios_base::Init"* @_ZStL8__ioinit, i64 0, i32 0), i8* nonnull @__dso_handle) #7
  ret void
}


!llvm.module.flags = !{!0, !1, !2, !3}
!llvm.ident = !{!4}

!0 = !{i32 1, !"wchar_size", i32 4}
!1 = !{i32 7, !"PIC Level", i32 2}
!2 = !{i32 7, !"PIE Level", i32 2}
!3 = !{i32 7, !"uwtable", i32 1}
!4 = !{!"clang version 13.0.0"}
!5 = !{!6, !6, i64 0}
!6 = !{!"int", !7, i64 0}
!7 = !{!"omnipotent char", !8, i64 0}
!8 = !{!"Simple C++ TBAA"}
!9 = distinct !{!9, !10}
!10 = !{!"llvm.loop.mustprogress"}
!11 = !{!12, !12, i64 0}
!12 = !{!"vtable pointer", !8, i64 0}
!13 = !{!14, !15, i64 240}
!14 = !{!"_ZTSSt9basic_iosIcSt11char_traitsIcEE", !15, i64 216, !7, i64 224, !16, i64 225, !15, i64 232, !15, i64 240, !15, i64 248, !15, i64 256}
!15 = !{!"any pointer", !7, i64 0}
!16 = !{!"bool", !7, i64 0}
!17 = !{!18, !7, i64 56}
!18 = !{!"_ZTSSt5ctypeIcE", !15, i64 16, !16, i64 24, !15, i64 32, !15, i64 40, !15, i64 48, !7, i64 56, !7, i64 57, !7, i64 313, !7, i64 569}
!19 = !{!7, !7, i64 0}
!20 = distinct !{!20, !10}
!21 = distinct !{!21, !22}
!22 = !{!"llvm.loop.unroll.disable"}
!23 = distinct !{!23, !10}
